target datalayout = "e-m:e-p270:32:32-p271:32:32-p272:64:64-i64:64-i128:128-f80:128-n8:16:32:64-S128"
target triple = "x86_64-pc-linux-gnu"

%struct._object = type { %union.anon, ptr }
%union.anon = type { i64 }
%struct.PyVarObject = type { %struct._object, i64 }
%struct._typeobject = type { %struct.PyVarObject, ptr, i64, i64, ptr, i64, ptr, ptr, ptr, ptr, ptr, ptr, ptr, ptr, ptr, ptr, ptr, ptr, ptr, i64, ptr, ptr, ptr, ptr, i64, ptr, ptr, ptr, ptr, ptr, ptr, ptr, ptr, ptr, i64, ptr, ptr, ptr, ptr, ptr, ptr, ptr, ptr, ptr, ptr, ptr, i32, ptr, ptr, i8, i16 }
%struct.PyTupleObject = type { %struct.PyVarObject, [1 x ptr] }
%struct.tokenizeriterobject = type { %struct._object, ptr, i32, ptr, i64, i64, i64 }
%struct.tok_state = type { ptr, ptr, ptr, i32, ptr, ptr, ptr, ptr, i32, ptr, i32, i32, [100 x i32], i32, i32, ptr, ptr, i32, i32, i32, i32, i32, [200 x i8], [200 x i32], [200 x i32], ptr, [100 x i32], i32, i32, ptr, i32, ptr, ptr, ptr, ptr, ptr, ptr, ptr, ptr, i32, i32, ptr, i32, [150 x %struct._tokenizer_mode], i32, i32, i32, i32 }
%struct._tokenizer_mode = type { i32, i32, i32, i8, i32, i32, ptr, ptr, i32, i64, i64, i64, i64, ptr, i32, i32 }
%struct.PyDictObject = type { %struct._object, i64, i64, ptr, ptr }
%struct.anon = type { i32, i32 }

@.str.8 = private unnamed_addr constant [14 x i8] c"tokenizeriter\00", align 1
@.str.9 = private unnamed_addr constant [20 x i8] c"argument 'encoding'\00", align 1
@.str.10 = private unnamed_addr constant [4 x i8] c"str\00", align 1
@PyExc_ValueError = external global ptr, align 8
@.str.11 = private unnamed_addr constant [24 x i8] c"embedded null character\00", align 1
@.str.12 = private unnamed_addr constant [9 x i8] c"<string>\00", align 1

; Function Attrs: alwaysinline nounwind uwtable
define internal i32 @_Py_IsImmortal(ptr noundef %0) #5 {
  %2 = alloca ptr, align 8
  store ptr %0, ptr %2, align 8, !tbaa !4
  %3 = load ptr, ptr %2, align 8, !tbaa !4
  %4 = getelementptr inbounds nuw %struct._object, ptr %3, i32 0, i32 0
  %5 = getelementptr inbounds nuw %struct.anon, ptr %4, i32 0, i32 0
  %6 = load i32, ptr %5, align 8, !tbaa !51
  %7 = icmp slt i32 %6, 0
  %8 = zext i1 %7 to i32
  ret i32 %8
}

; Function Attrs: alwaysinline nounwind uwtable
define internal void @Py_DECREF(ptr noundef %0) #5 {
  %2 = alloca ptr, align 8
  store ptr %0, ptr %2, align 8, !tbaa !4
  %3 = load ptr, ptr %2, align 8, !tbaa !4
  %4 = call i32 @_Py_IsImmortal(ptr noundef %3)
  %5 = icmp ne i32 %4, 0
  br i1 %5, label %6, label %7

6:                                                ; preds = %1
  br label %16

7:                                                ; preds = %1
  %8 = load ptr, ptr %2, align 8, !tbaa !4
  %9 = getelementptr inbounds nuw %struct._object, ptr %8, i32 0, i32 0
  %10 = getelementptr inbounds nuw %struct.anon, ptr %9, i32 0, i32 0
  %11 = load i32, ptr %10, align 8, !tbaa !51
  %12 = add i32 %11, -1
  store i32 %12, ptr %10, align 8, !tbaa !51
  %13 = icmp eq i32 %12, 0
  br i1 %13, label %14, label %16

14:                                               ; preds = %7
  %15 = load ptr, ptr %2, align 8, !tbaa !4
  call void @_Py_Dealloc(ptr noundef %15)
  br label %16

16:                                               ; preds = %6, %14, %7
  ret void
}

; Function Attrs: inlinehint nounwind uwtable
define internal i64 @Py_SIZE(ptr noundef %0) #3 {
  %2 = alloca ptr, align 8
  store ptr %0, ptr %2, align 8, !tbaa !4
  %3 = load ptr, ptr %2, align 8, !tbaa !4
  %4 = getelementptr inbounds nuw %struct.PyVarObject, ptr %3, i32 0, i32 1
  %5 = load i64, ptr %4, align 8, !tbaa !63
  ret i64 %5
}

; Function Attrs: nounwind uwtable
define internal ptr @tokenizeriter_new_impl(ptr noundef %0, ptr noundef %1, i32 noundef %2, ptr noundef %3) #0 {
  %5 = alloca ptr, align 8
  %6 = alloca ptr, align 8
  %7 = alloca ptr, align 8
  %8 = alloca i32, align 4
  %9 = alloca ptr, align 8
  %10 = alloca ptr, align 8
  %11 = alloca i32, align 4
  %12 = alloca ptr, align 8
  store ptr %0, ptr %6, align 8, !tbaa !17
  store ptr %1, ptr %7, align 8, !tbaa !4
  store i32 %2, ptr %8, align 4, !tbaa !13
  store ptr %3, ptr %9, align 8, !tbaa !20
  call void @llvm.lifetime.start.p0(i64 8, ptr %10) #6
  %13 = load ptr, ptr %6, align 8, !tbaa !17
  %14 = getelementptr inbounds nuw %struct._typeobject, ptr %13, i32 0, i32 36
  %15 = load ptr, ptr %14, align 8, !tbaa !58
  %16 = load ptr, ptr %6, align 8, !tbaa !17
  %17 = call ptr %15(ptr noundef %16, i64 noundef 0)
  store ptr %17, ptr %10, align 8, !tbaa !9
  %18 = load ptr, ptr %10, align 8, !tbaa !9
  %19 = icmp eq ptr %18, null
  br i1 %19, label %20, label %21

20:                                               ; preds = %4
  store ptr null, ptr %5, align 8
  store i32 1, ptr %11, align 4
  br label %64

21:                                               ; preds = %4
  call void @llvm.lifetime.start.p0(i64 8, ptr %12) #6
  %22 = call ptr @PyUnicode_FromString(ptr noundef @.str.12)
  store ptr %22, ptr %12, align 8, !tbaa !4
  %23 = load ptr, ptr %12, align 8, !tbaa !4
  %24 = icmp eq ptr %23, null
  br i1 %24, label %25, label %26

25:                                               ; preds = %21
  store ptr null, ptr %5, align 8
  store i32 1, ptr %11, align 4
  br label %63

26:                                               ; preds = %21
  %27 = load ptr, ptr %7, align 8, !tbaa !4
  %28 = load ptr, ptr %9, align 8, !tbaa !20
  %29 = call ptr @_PyTokenizer_FromReadline(ptr noundef %27, ptr noundef %28, i32 noundef 1, i32 noundef 1)
  %30 = load ptr, ptr %10, align 8, !tbaa !9
  %31 = getelementptr inbounds nuw %struct.tokenizeriterobject, ptr %30, i32 0, i32 1
  store ptr %29, ptr %31, align 8, !tbaa !28
  %32 = load ptr, ptr %10, align 8, !tbaa !9
  %33 = getelementptr inbounds nuw %struct.tokenizeriterobject, ptr %32, i32 0, i32 1
  %34 = load ptr, ptr %33, align 8, !tbaa !28
  %35 = icmp eq ptr %34, null
  br i1 %35, label %36, label %38

36:                                               ; preds = %26
  %37 = load ptr, ptr %12, align 8, !tbaa !4
  call void @Py_DECREF(ptr noundef %37)
  store ptr null, ptr %5, align 8
  store i32 1, ptr %11, align 4
  br label %63

38:                                               ; preds = %26
  %39 = load ptr, ptr %12, align 8, !tbaa !4
  %40 = load ptr, ptr %10, align 8, !tbaa !9
  %41 = getelementptr inbounds nuw %struct.tokenizeriterobject, ptr %40, i32 0, i32 1
  %42 = load ptr, ptr %41, align 8, !tbaa !28
  %43 = getelementptr inbounds nuw %struct.tok_state, ptr %42, i32 0, i32 25
  store ptr %39, ptr %43, align 8, !tbaa !59
  %44 = load i32, ptr %8, align 4, !tbaa !13
  %45 = icmp ne i32 %44, 0
  br i1 %45, label %46, label %51

46:                                               ; preds = %38
  %47 = load ptr, ptr %10, align 8, !tbaa !9
  %48 = getelementptr inbounds nuw %struct.tokenizeriterobject, ptr %47, i32 0, i32 1
  %49 = load ptr, ptr %48, align 8, !tbaa !28
  %50 = getelementptr inbounds nuw %struct.tok_state, ptr %49, i32 0, i32 45
  store i32 1, ptr %50, align 4, !tbaa !45
  br label %51

51:                                               ; preds = %46, %38
  %52 = load ptr, ptr %10, align 8, !tbaa !9
  %53 = getelementptr inbounds nuw %struct.tokenizeriterobject, ptr %52, i32 0, i32 2
  store i32 0, ptr %53, align 8, !tbaa !36
  %54 = load ptr, ptr %10, align 8, !tbaa !9
  %55 = getelementptr inbounds nuw %struct.tokenizeriterobject, ptr %54, i32 0, i32 3
  store ptr null, ptr %55, align 8, !tbaa !24
  %56 = load ptr, ptr %10, align 8, !tbaa !9
  %57 = getelementptr inbounds nuw %struct.tokenizeriterobject, ptr %56, i32 0, i32 6
  store i64 0, ptr %57, align 8, !tbaa !60
  %58 = load ptr, ptr %10, align 8, !tbaa !9
  %59 = getelementptr inbounds nuw %struct.tokenizeriterobject, ptr %58, i32 0, i32 4
  store i64 0, ptr %59, align 8, !tbaa !61
  %60 = load ptr, ptr %10, align 8, !tbaa !9
  %61 = getelementptr inbounds nuw %struct.tokenizeriterobject, ptr %60, i32 0, i32 5
  store i64 0, ptr %61, align 8, !tbaa !62
  %62 = load ptr, ptr %10, align 8, !tbaa !9
  store ptr %62, ptr %5, align 8
  store i32 1, ptr %11, align 4
  br label %63

63:                                               ; preds = %51, %36, %25
  call void @llvm.lifetime.end.p0(i64 8, ptr %12) #6
  br label %64

64:                                               ; preds = %63, %20
  call void @llvm.lifetime.end.p0(i64 8, ptr %10) #6
  %65 = load ptr, ptr %5, align 8
  ret ptr %65
}

; Function Attrs: inlinehint nounwind uwtable
define internal i32 @PyType_HasFeature(ptr noundef %0, i64 noundef %1) #3 {
  %3 = alloca ptr, align 8
  %4 = alloca i64, align 8
  %5 = alloca i64, align 8
  store ptr %0, ptr %3, align 8, !tbaa !17
  store i64 %1, ptr %4, align 8, !tbaa !18
  call void @llvm.lifetime.start.p0(i64 8, ptr %5) #6
  %6 = load ptr, ptr %3, align 8, !tbaa !17
  %7 = getelementptr inbounds nuw %struct._typeobject, ptr %6, i32 0, i32 19
  %8 = load i64, ptr %7, align 8, !tbaa !56
  store i64 %8, ptr %5, align 8, !tbaa !18
  %9 = load i64, ptr %5, align 8, !tbaa !18
  %10 = load i64, ptr %4, align 8, !tbaa !18
  %11 = and i64 %9, %10
  %12 = icmp ne i64 %11, 0
  %13 = zext i1 %12 to i32
  call void @llvm.lifetime.end.p0(i64 8, ptr %5) #6
  ret i32 %13
}

; Function Attrs: inlinehint nounwind uwtable
define internal ptr @_Py_TYPE(ptr noundef %0) #3 {
  %2 = alloca ptr, align 8
  store ptr %0, ptr %2, align 8, !tbaa !4
  %3 = load ptr, ptr %2, align 8, !tbaa !4
  %4 = getelementptr inbounds nuw %struct._object, ptr %3, i32 0, i32 1
  %5 = load ptr, ptr %4, align 8, !tbaa !57
  ret ptr %5
}

; Function Attrs: inlinehint nounwind uwtable
define internal i64 @PyDict_GET_SIZE(ptr noundef %0) #3 {
  %2 = alloca ptr, align 8
  %3 = alloca ptr, align 8
  store ptr %0, ptr %2, align 8, !tbaa !4
  call void @llvm.lifetime.start.p0(i64 8, ptr %3) #6
  %4 = load ptr, ptr %2, align 8, !tbaa !4
  store ptr %4, ptr %3, align 8, !tbaa !9
  %5 = load ptr, ptr %3, align 8, !tbaa !9
  %6 = getelementptr inbounds nuw %struct.PyDictObject, ptr %5, i32 0, i32 1
  %7 = load i64, ptr %6, align 8, !tbaa !52
  call void @llvm.lifetime.end.p0(i64 8, ptr %3) #6
  ret i64 %7
}

; Function Attrs: inlinehint nounwind uwtable
define internal i64 @PyTuple_GET_SIZE(ptr noundef %0) #3 {
  %2 = alloca ptr, align 8
  %3 = alloca ptr, align 8
  store ptr %0, ptr %2, align 8, !tbaa !4
  call void @llvm.lifetime.start.p0(i64 8, ptr %3) #6
  %4 = load ptr, ptr %2, align 8, !tbaa !4
  store ptr %4, ptr %3, align 8, !tbaa !9
  %5 = load ptr, ptr %3, align 8, !tbaa !9
  %6 = call i64 @Py_SIZE(ptr noundef %5)
  call void @llvm.lifetime.end.p0(i64 8, ptr %3) #6
  ret i64 %6
}

; Function Attrs: nounwind uwtable
define internal ptr @tokenizeriter_new(ptr noundef %0, ptr noundef %1, ptr noundef %2) #0 {
  %4 = alloca ptr, align 8
  %5 = alloca ptr, align 8
  %6 = alloca ptr, align 8
  %7 = alloca ptr, align 8
  %8 = alloca [3 x ptr], align 16
  %9 = alloca ptr, align 8
  %10 = alloca i64, align 8
  %11 = alloca i64, align 8
  %12 = alloca ptr, align 8
  %13 = alloca i32, align 4
  %14 = alloca ptr, align 8
  %15 = alloca i64, align 8
  store ptr %0, ptr %4, align 8, !tbaa !17
  store ptr %1, ptr %5, align 8, !tbaa !4
  store ptr %2, ptr %6, align 8, !tbaa !4
  call void @llvm.lifetime.start.p0(i64 8, ptr %7) #6
  store ptr null, ptr %7, align 8, !tbaa !4
  call void @llvm.lifetime.start.p0(i64 24, ptr %8) #6
  call void @llvm.lifetime.start.p0(i64 8, ptr %9) #6
  call void @llvm.lifetime.start.p0(i64 8, ptr %10) #6
  %16 = load ptr, ptr %5, align 8, !tbaa !4
  %17 = call i64 @PyTuple_GET_SIZE(ptr noundef %16)
  store i64 %17, ptr %10, align 8, !tbaa !18
  call void @llvm.lifetime.start.p0(i64 8, ptr %11) #6
  %18 = load i64, ptr %10, align 8, !tbaa !18
  %19 = load ptr, ptr %6, align 8, !tbaa !4
  %20 = icmp ne ptr %19, null
  br i1 %20, label %21, label %24

21:                                               ; preds = %3
  %22 = load ptr, ptr %6, align 8, !tbaa !4
  %23 = call i64 @PyDict_GET_SIZE(ptr noundef %22)
  br label %25

24:                                               ; preds = %3
  br label %25

25:                                               ; preds = %24, %21
  %26 = phi i64 [ %23, %21 ], [ 0, %24 ]
  %27 = add i64 %18, %26
  %28 = sub i64 %27, 2
  store i64 %28, ptr %11, align 8, !tbaa !18
  call void @llvm.lifetime.start.p0(i64 8, ptr %12) #6
  call void @llvm.lifetime.start.p0(i64 4, ptr %13) #6
  call void @llvm.lifetime.start.p0(i64 8, ptr %14) #6
  store ptr null, ptr %14, align 8, !tbaa !20
  %29 = load ptr, ptr %5, align 8, !tbaa !4
  %30 = getelementptr inbounds nuw %struct.PyTupleObject, ptr %29, i32 0, i32 1
  %31 = getelementptr inbounds [1 x ptr], ptr %30, i64 0, i64 0
  %32 = load i64, ptr %10, align 8, !tbaa !18
  %33 = load ptr, ptr %6, align 8, !tbaa !4
  %34 = getelementptr inbounds [3 x ptr], ptr %8, i64 0, i64 0
  %35 = call ptr @_PyArg_UnpackKeywords(ptr noundef %31, i64 noundef %32, ptr noundef %33, ptr noundef null, ptr noundef @tokenizeriter_new._parser, i32 noundef 1, i32 noundef 1, i32 noundef 1, i32 noundef 0, ptr noundef %34)
  store ptr %35, ptr %9, align 8, !tbaa !22
  %36 = load ptr, ptr %9, align 8, !tbaa !22
  %37 = icmp ne ptr %36, null
  br i1 %37, label %39, label %38

38:                                               ; preds = %25
  br label %87

39:                                               ; preds = %25
  %40 = load ptr, ptr %9, align 8, !tbaa !22
  %41 = getelementptr ptr, ptr %40, i64 0
  %42 = load ptr, ptr %41, align 8, !tbaa !4
  store ptr %42, ptr %12, align 8, !tbaa !4
  %43 = load ptr, ptr %9, align 8, !tbaa !22
  %44 = getelementptr ptr, ptr %43, i64 1
  %45 = load ptr, ptr %44, align 8, !tbaa !4
  %46 = call i32 @PyObject_IsTrue(ptr noundef %45)
  store i32 %46, ptr %13, align 4, !tbaa !13
  %47 = load i32, ptr %13, align 4, !tbaa !13
  %48 = icmp slt i32 %47, 0
  br i1 %48, label %49, label %50

49:                                               ; preds = %39
  br label %87

50:                                               ; preds = %39
  %51 = load i64, ptr %11, align 8, !tbaa !18
  %52 = icmp ne i64 %51, 0
  br i1 %52, label %54, label %53

53:                                               ; preds = %50
  br label %81

54:                                               ; preds = %50
  %55 = load ptr, ptr %9, align 8, !tbaa !22
  %56 = getelementptr ptr, ptr %55, i64 2
  %57 = load ptr, ptr %56, align 8, !tbaa !4
  %58 = call ptr @_Py_TYPE(ptr noundef %57)
  %59 = call i32 @PyType_HasFeature(ptr noundef %58, i64 noundef 268435456)
  %60 = icmp ne i32 %59, 0
  br i1 %60, label %65, label %61

61:                                               ; preds = %54
  %62 = load ptr, ptr %9, align 8, !tbaa !22
  %63 = getelementptr ptr, ptr %62, i64 2
  %64 = load ptr, ptr %63, align 8, !tbaa !4
  call void @_PyArg_BadArgument(ptr noundef @.str.8, ptr noundef @.str.9, ptr noundef @.str.10, ptr noundef %64)
  br label %87

65:                                               ; preds = %54
  %66 = load ptr, ptr %9, align 8, !tbaa !22
  %67 = getelementptr ptr, ptr %66, i64 2
  %68 = load ptr, ptr %67, align 8, !tbaa !4
  %69 = call ptr @PyUnicode_AsUTF8AndSize(ptr noundef %68, ptr noundef %15)
  store ptr %69, ptr %14, align 8, !tbaa !20
  %70 = load ptr, ptr %14, align 8, !tbaa !20
  %71 = icmp eq ptr %70, null
  br i1 %71, label %72, label %73

72:                                               ; preds = %65
  br label %87

73:                                               ; preds = %65
  %74 = load ptr, ptr %14, align 8, !tbaa !20
  %75 = call i64 @strlen(ptr noundef %74) #7
  %76 = load i64, ptr %15, align 8, !tbaa !18
  %77 = icmp ne i64 %75, %76
  br i1 %77, label %78, label %80

78:                                               ; preds = %73
  %79 = load ptr, ptr @PyExc_ValueError, align 8, !tbaa !4
  call void @PyErr_SetString(ptr noundef %79, ptr noundef @.str.11)
  br label %87

80:                                               ; preds = %73
  br label %81

81:                                               ; preds = %80, %53
  %82 = load ptr, ptr %4, align 8, !tbaa !17
  %83 = load ptr, ptr %12, align 8, !tbaa !4
  %84 = load i32, ptr %13, align 4, !tbaa !13
  %85 = load ptr, ptr %14, align 8, !tbaa !20
  %86 = call ptr @tokenizeriter_new_impl(ptr noundef %82, ptr noundef %83, i32 noundef %84, ptr noundef %85)
  store ptr %86, ptr %7, align 8, !tbaa !4
  br label %87

87:                                               ; preds = %81, %78, %72, %61, %49, %38
  %88 = load ptr, ptr %7, align 8, !tbaa !4
  call void @llvm.lifetime.end.p0(i64 8, ptr %14) #6
  call void @llvm.lifetime.end.p0(i64 4, ptr %13) #6
  call void @llvm.lifetime.end.p0(i64 8, ptr %12) #6
  call void @llvm.lifetime.end.p0(i64 8, ptr %11) #6
  call void @llvm.lifetime.end.p0(i64 8, ptr %10) #6
  call void @llvm.lifetime.end.p0(i64 8, ptr %9) #6
  call void @llvm.lifetime.end.p0(i64 24, ptr %8) #6
  call void @llvm.lifetime.end.p0(i64 8, ptr %7) #6
  ret ptr %88
}