; Function Attrs: nounwind uwtable
define internal ptr @tokenizeriter_new(ptr noundef %0, ptr noundef %1, ptr noundef %2) #0 {
  %4 = alloca [3 x ptr], align 16
  %5 = alloca i64, align 8
  call void @llvm.lifetime.start.p0(i64 24, ptr nonnull %4) #6
  %6 = getelementptr i8, ptr %1, i64 16
  %.val30 = load i64, ptr %6, align 8, !tbaa !12
  %.not = icmp eq ptr %2, null
  br i1 %.not, label %9, label %7

7:                                                ; preds = %3
  %8 = getelementptr i8, ptr %2, i64 16
  %.val31 = load i64, ptr %8, align 8, !tbaa !16
  br label %9

9:                                                ; preds = %3, %7
  %10 = phi i64 [ %.val31, %7 ], [ 0, %3 ]
  %11 = add i64 %10, %.val30
  %12 = getelementptr inbounds nuw i8, ptr %1, i64 24
  %13 = call ptr @_PyArg_UnpackKeywords(ptr noundef nonnull %12, i64 noundef %.val30, ptr noundef %2, ptr noundef null, ptr noundef nonnull @tokenizeriter_new._parser, i32 noundef 1, i32 noundef 1, i32 noundef 1, i32 noundef 0, ptr noundef nonnull %4) #6
  %.not26 = icmp eq ptr %13, null
  br i1 %.not26, label %tokenizeriter_new_impl.exit, label %14

14:                                               ; preds = %9
  %15 = load ptr, ptr %13, align 8, !tbaa !20
  %16 = getelementptr i8, ptr %13, i64 8
  %17 = load ptr, ptr %16, align 8, !tbaa !20
  %18 = call i32 @PyObject_IsTrue(ptr noundef %17) #6
  %19 = icmp slt i32 %18, 0
  br i1 %19, label %tokenizeriter_new_impl.exit, label %20

20:                                               ; preds = %14
  %.not27 = icmp eq i64 %11, 2
  br i1 %.not27, label %36, label %21

21:                                               ; preds = %20
  %22 = getelementptr i8, ptr %13, i64 16
  %23 = load ptr, ptr %22, align 8, !tbaa !20
  %24 = getelementptr i8, ptr %23, i64 8
  %.val = load ptr, ptr %24, align 8, !tbaa !22
  %25 = getelementptr i8, ptr %.val, i64 168
  %.val32 = load i64, ptr %25, align 8, !tbaa !23
  %26 = and i64 %.val32, 268435456
  %.not28 = icmp eq i64 %26, 0
  br i1 %.not28, label %27, label %28

27:                                               ; preds = %21
  call void @_PyArg_BadArgument(ptr noundef nonnull @.str.8, ptr noundef nonnull @.str.9, ptr noundef nonnull @.str.10, ptr noundef nonnull %23) #6
  br label %tokenizeriter_new_impl.exit

28:                                               ; preds = %21
  %29 = call ptr @PyUnicode_AsUTF8AndSize(ptr noundef nonnull %23, ptr noundef nonnull %5) #6
  %30 = icmp eq ptr %29, null
  br i1 %30, label %tokenizeriter_new_impl.exit, label %31

31:                                               ; preds = %28
  %32 = call i64 @strlen(ptr noundef nonnull dereferenceable(1) %29) #7
  %33 = load i64, ptr %5, align 8, !tbaa !31
  %.not29 = icmp eq i64 %32, %33
  br i1 %.not29, label %36, label %34

34:                                               ; preds = %31
  %35 = load ptr, ptr @PyExc_ValueError, align 8, !tbaa !20
  call void @PyErr_SetString(ptr noundef %35, ptr noundef nonnull @.str.11) #6
  br label %tokenizeriter_new_impl.exit

36:                                               ; preds = %31, %20
  %.0 = phi ptr [ %29, %31 ], [ null, %20 ]
  %37 = getelementptr inbounds nuw i8, ptr %0, i64 304
  %38 = load ptr, ptr %37, align 8, !tbaa !32
  %39 = call ptr %38(ptr noundef %0, i64 noundef 0) #6
  %40 = icmp eq ptr %39, null
  br i1 %40, label %tokenizeriter_new_impl.exit, label %41

41:                                               ; preds = %36
  %42 = call ptr @PyUnicode_FromString(ptr noundef nonnull @.str.12) #6
  %43 = icmp eq ptr %42, null
  br i1 %43, label %tokenizeriter_new_impl.exit, label %44

44:                                               ; preds = %41
  %45 = call ptr @_PyTokenizer_FromReadline(ptr noundef %15, ptr noundef %.0, i32 noundef 1, i32 noundef 1) #6
  %46 = getelementptr inbounds nuw i8, ptr %39, i64 16
  store ptr %45, ptr %46, align 8, !tbaa !33
  %47 = icmp eq ptr %45, null
  br i1 %47, label %48, label %54

48:                                               ; preds = %44
  %49 = load i32, ptr %42, align 8, !tbaa !11
  %.not.i.i = icmp sgt i32 %49, -1
  br i1 %.not.i.i, label %50, label %tokenizeriter_new_impl.exit

50:                                               ; preds = %48
  %51 = add nsw i32 %49, -1
  store i32 %51, ptr %42, align 8, !tbaa !11
  %52 = icmp eq i32 %51, 0
  br i1 %52, label %53, label %tokenizeriter_new_impl.exit

53:                                               ; preds = %50
  call void @_Py_Dealloc(ptr noundef nonnull %42) #6
  br label %tokenizeriter_new_impl.exit

54:                                               ; preds = %44
  %55 = getelementptr inbounds nuw i8, ptr %45, i64 2336
  store ptr %42, ptr %55, align 8, !tbaa !36
  %.not.i = icmp eq i32 %18, 0
  br i1 %.not.i, label %58, label %56

56:                                               ; preds = %54
  %57 = getelementptr inbounds nuw i8, ptr %45, i64 17260
  store i32 1, ptr %57, align 4, !tbaa !39
  br label %58

58:                                               ; preds = %56, %54
  %59 = getelementptr inbounds nuw i8, ptr %39, i64 24
  store i32 0, ptr %59, align 8, !tbaa !40
  %60 = getelementptr inbounds nuw i8, ptr %39, i64 32
  call void @llvm.memset.p0.i64(ptr noundef nonnull align 8 dereferenceable(32) %60, i8 0, i64 32, i1 false)
  br label %tokenizeriter_new_impl.exit

tokenizeriter_new_impl.exit:                      ; preds = %58, %53, %50, %48, %41, %36, %28, %14, %9, %34, %27
  %.021 = phi ptr [ null, %14 ], [ null, %28 ], [ null, %34 ], [ null, %27 ], [ null, %9 ], [ null, %36 ], [ %39, %58 ], [ null, %41 ], [ null, %48 ], [ null, %50 ], [ null, %53 ]
  call void @llvm.lifetime.end.p0(i64 24, ptr nonnull %4) #6
  ret ptr %.021
}